(i__main__
Corridor_list
p0
(dp1
S'corridors'
p2
(lp3
(i__main__
Corridor
p4
(dp5
S'reward_zone_starts'
p6
cnumpy.core.multiarray
_reconstruct
p7
(cnumpy
ndarray
p8
(I0
tp9
S'b'
p10
tp11
Rp12
(I1
(I0
tp13
cnumpy
dtype
p14
(S'f8'
p15
I0
I1
tp16
Rp17
(I3
S'<'
p18
NNNI-1
I-1
I0
tp19
bI00
S''
p20
tp21
bsS'reward'
p22
S'None'
p23
sS'name'
p24
S'grey'
p25
sS'end_image'
p26
S'grey_end_wall.png'
p27
sS'length'
p28
I7168
sS'left_image'
p29
S'grey_wall.png'
p30
sS'height'
p31
I768
sS'width'
p32
I1024
sS'ceiling_image'
p33
S'grey_floor_ceiling.png'
p34
sS'reward_zone_ends'
p35
g7
(g8
(I0
tp36
g10
tp37
Rp38
(I1
(I0
tp39
g17
I00
g20
tp40
bsS'N_zones'
p41
I0
sS'floor_image'
p42
g34
sS'right_image'
p43
g30
sba(i__main__
Corridor
p44
(dp45
g6
g7
(g8
(I0
tp46
g10
tp47
Rp48
(I1
(I9
tp49
g17
I00
S'UUUUUU\x97?UUUUU\x15\xc1?\x00\x00\x00\x00\x00@\xcf?UUUUU\xb5\xd6?\xab\xaa\xaa\xaa\xaa\xca\xdd?\x00\x00\x00\x00\x00p\xe2?\xab\xaa\xaa\xaa\xaa\xfa\xe5?UUUUU\x85\xe9?\x00\x00\x00\x00\x00\x10\xed?'
p50
tp51
bsg22
S'Right'
p52
sg24
S'9_cheese'
p53
sg26
S'black_end_wall.png'
p54
sg28
I7168
sg29
S'RN_9_cheese_left.png'
p55
sg31
I768
sg32
I1024
sg33
S'floor_ceiling.png'
p56
sg35
g7
(g8
(I0
tp57
g10
tp58
Rp59
(I1
(I9
tp60
g17
I00
S'\xaa\xaa\xaa\xaa\xaaj\xb9?\x00\x00\x00\x00\x00\xe0\xca?UUUUU\x85\xd4?\xaa\xaa\xaa\xaa\xaa\x9a\xdb?\x00\x00\x00\x00\x00X\xe1?\xab\xaa\xaa\xaa\xaa\xe2\xe4?VUUUUm\xe8?\x00\x00\x00\x00\x00\xf8\xeb?\xab\xaa\xaa\xaa\xaa\x82\xef?'
p61
tp62
bsg41
I9
sg42
g56
sg43
S'RN_9_cheese_right.png'
p63
sba(i__main__
Corridor
p64
(dp65
g6
g7
(g8
(I0
tp66
g10
tp67
Rp68
(I1
(I7
tp69
g17
I00
S'UUUUUU\x97?\x00\x00\x00\x00\x00\xc0\xc7?UUUUU5\xd4?\xab\xaa\xaa\xaa\xaa\x8a\xdc?UUUUU\x85\xe4?\x00\x00\x00\x00\x00\xb0\xe8?UUUUU\xa5\xec?'
p70
tp71
bsg22
g52
sg24
S'7_cheese_a'
p72
sg26
g54
sg28
I7168
sg29
S'RN_7_cheese_left_a.png'
p73
sg31
I768
sg32
I1024
sg33
g56
sg35
g7
(g8
(I0
tp74
g10
tp75
Rp76
(I1
(I7
tp77
g17
I00
S'\xaa\xaa\xaa\xaa\xaaj\xb9?UUUUU\xc5\xd0?\xaa\xaa\xaa\xaa\xaa\x1a\xd9?\x00\x00\x00\x00\x00\xb8\xe0?\x00\x00\x00\x00\x00\xf8\xe6?\xab\xaa\xaa\xaa\xaa"\xeb?\x00\x00\x00\x00\x00\x18\xef?'
p78
tp79
bsg41
I7
sg42
g56
sg43
S'RN_7_cheese_right_a.png'
p80
sba(i__main__
Corridor
p81
(dp82
g6
g7
(g8
(I0
tp83
g10
tp84
Rp85
(I1
(I7
tp86
g17
I00
S'UUUUUU\x97?UUUUU\x95\xc3?\x00\x00\x00\x00\x00 \xd2?UUUUUu\xda?UUUUUe\xe1?\x00\x00\x00\x00\x00\x90\xe5?UUUUU\xa5\xec?'
p87
tp88
bsg22
g52
sg24
S'7_cheese_b'
p89
sg26
g54
sg28
I7168
sg29
S'RN_7_cheese_left_b.png'
p90
sg31
I768
sg32
I1024
sg33
g56
sg35
g7
(g8
(I0
tp91
g10
tp92
Rp93
(I1
(I7
tp94
g17
I00
S'\xaa\xaa\xaa\xaa\xaaj\xb9?\x00\x00\x00\x00\x00`\xcd?UUUUU\x05\xd7?\xaa\xaa\xaa\xaa\xaaZ\xdf?\x00\x00\x00\x00\x00\xd8\xe3?\xab\xaa\xaa\xaa\xaa\x02\xe8?\x00\x00\x00\x00\x00\x18\xef?'
p95
tp96
bsg41
I7
sg42
g56
sg43
S'RN_7_cheese_right_b.png'
p97
sba(i__main__
Corridor
p98
(dp99
g6
g7
(g8
(I0
tp100
g10
tp101
Rp102
(I1
(I7
tp103
g17
I00
S'UUUUUU\xac?\xab\xaa\xaa\xaa\xaa\n\xd0?\x00\x00\x00\x00\x00`\xd8?\x00\x00\x00\x00\x00\xa8\xe1?UUUUUM\xe5?\xab\xaa\xaa\xaa\xaa\xf2\xe8?UUUUU\xa5\xec?'
p104
tp105
bsg22
g52
sg24
S'7_cheese_c'
p106
sg26
g54
sg28
I7168
sg29
S'RN_7_cheese_left_c.png'
p107
sg31
I768
sg32
I1024
sg33
g56
sg35
g7
(g8
(I0
tp108
g10
tp109
Rp110
(I1
(I7
tp111
g17
I00
S'\x00\x00\x00\x00\x00\xe0\xc0?\x00\x00\x00\x00\x00\xf0\xd4?UUUUUE\xdd?\xab\xaa\xaa\xaa\xaa\x1a\xe4?\x00\x00\x00\x00\x00\xc0\xe7?VUUUUe\xeb?\x00\x00\x00\x00\x00\x18\xef?'
p112
tp113
bsg41
I7
sg42
g56
sg43
S'RN_7_cheese_right_c.png'
p114
sba(i__main__
Corridor
p115
(dp116
g6
g7
(g8
(I0
tp117
g10
tp118
Rp119
(I1
(I5
tp120
g17
I00
S'UUUUU\x95\xc3?\x00\x00\x00\x00\x00 \xd2?UUUUUu\xda?\x00\x00\x00\x00\x00\x90\xe5?UUUUU\xa5\xec?'
p121
tp122
bsg22
g52
sg24
S'5_cheese_a'
p123
sg26
g54
sg28
I7168
sg29
S'RN_5_cheese_left_a.png'
p124
sg31
I768
sg32
I1024
sg33
g56
sg35
g7
(g8
(I0
tp125
g10
tp126
Rp127
(I1
(I5
tp128
g17
I00
S'\x00\x00\x00\x00\x00`\xcd?UUUUU\x05\xd7?\xaa\xaa\xaa\xaa\xaaZ\xdf?\xab\xaa\xaa\xaa\xaa\x02\xe8?\x00\x00\x00\x00\x00\x18\xef?'
p129
tp130
bsg41
I5
sg42
g56
sg43
S'RN_5_cheese_right_a.png'
p131
sba(i__main__
Corridor
p132
(dp133
g6
g7
(g8
(I0
tp134
g10
tp135
Rp136
(I1
(I5
tp137
g17
I00
S'UUUUUU\x97?\xab\xaa\xaa\xaa\xaa\xea\xcb?\xab\xaa\xaa\xaa\xaaZ\xe0?\xab\xaa\xaa\xaa\xaa*\xe8?UUUUU\xa5\xec?'
p138
tp139
bsg22
g52
sg24
S'5_cheese_b'
p140
sg26
g54
sg28
I7168
sg29
S'RN_5_cheese_left_b.png'
p141
sg31
I768
sg32
I1024
sg33
g56
sg35
g7
(g8
(I0
tp142
g10
tp143
Rp144
(I1
(I5
tp145
g17
I00
S'\xaa\xaa\xaa\xaa\xaaj\xb9?\xab\xaa\xaa\xaa\xaa\xda\xd2?VUUUU\xcd\xe2?VUUUU\x9d\xea?\x00\x00\x00\x00\x00\x18\xef?'
p146
tp147
bsg41
I5
sg42
g56
sg43
S'RN_5_cheese_right_b.png'
p148
sba(i__main__
Corridor
p149
(dp150
g6
g7
(g8
(I0
tp151
g10
tp152
Rp153
(I1
(I5
tp154
g17
I00
S'\x00\x00\x00\x00\x00\xc0\xc7?\xab\xaa\xaa\xaa\xaa\x8a\xdc?UUUUU\x85\xe4?\x00\x00\x00\x00\x00\xb0\xe8?UUUUU\xa5\xec?'
p155
tp156
bsg22
g52
sg24
S'5_cheese_c'
p157
sg26
g54
sg28
I7168
sg29
S'RN_5_cheese_left_c.png'
p158
sg31
I768
sg32
I1024
sg33
g56
sg35
g7
(g8
(I0
tp159
g10
tp160
Rp161
(I1
(I5
tp162
g17
I00
S'UUUUU\xc5\xd0?\x00\x00\x00\x00\x00\xb8\xe0?\x00\x00\x00\x00\x00\xf8\xe6?\xab\xaa\xaa\xaa\xaa"\xeb?\x00\x00\x00\x00\x00\x18\xef?'
p163
tp164
bsg41
I5
sg42
g56
sg43
S'RN_5_cheese_right_c.png'
p165
sba(i__main__
Corridor
p166
(dp167
g6
g7
(g8
(I0
tp168
g10
tp169
Rp170
(I1
(I3
tp171
g17
I00
S'\x00\x00\x00\x00\x00\xc0\xc7?\xab\xaa\xaa\xaa\xaaJ\xd6?\x00\x00\x00\x00\x00X\xeb?'
p172
tp173
bsg22
g52
sg24
S'3_cheese_a'
p174
sg26
g54
sg28
I7168
sg29
S'RN_3_cheese_left_a.png'
p175
sg31
I768
sg32
I1024
sg33
g56
sg35
g7
(g8
(I0
tp176
g10
tp177
Rp178
(I1
(I3
tp179
g17
I00
S'UUUUU\xc5\xd0?\x00\x00\x00\x00\x000\xdb?\xab\xaa\xaa\xaa\xaa\xca\xed?'
p180
tp181
bsg41
I3
sg42
g56
sg43
S'RN_3_cheese_right_a.png'
p182
sba(i__main__
Corridor
p183
(dp184
g6
g7
(g8
(I0
tp185
g10
tp186
Rp187
(I1
(I3
tp188
g17
I00
S'UUUUU\x95\xc3?UUUUU\xf5\xe2?\x00\x00\x00\x00\x00X\xeb?'
p189
tp190
bsg22
g52
sg24
S'3_cheese_b'
p191
sg26
g54
sg28
I7168
sg29
S'RN_3_cheese_left_b.png'
p192
sg31
I768
sg32
I1024
sg33
g56
sg35
g7
(g8
(I0
tp193
g10
tp194
Rp195
(I1
(I3
tp196
g17
I00
S'\x00\x00\x00\x00\x00`\xcd?\x00\x00\x00\x00\x00h\xe5?\xab\xaa\xaa\xaa\xaa\xca\xed?'
p197
tp198
bsg41
I3
sg42
g56
sg43
S'RN_3_cheese_right_b.png'
p199
sba(i__main__
Corridor
p200
(dp201
g6
g7
(g8
(I0
tp202
g10
tp203
Rp204
(I1
(I3
tp205
g17
I00
S'\x00\x00\x00\x00\x00 \xd2?\x00\x00\x00\x00\x00\x90\xe5?\x00\x00\x00\x00\x00X\xeb?'
p206
tp207
bsg22
g52
sg24
S'3_cheese_c'
p208
sg26
g54
sg28
I7168
sg29
S'RN_3_cheese_left_c.png'
p209
sg31
I768
sg32
I1024
sg33
g56
sg35
g7
(g8
(I0
tp210
g10
tp211
Rp212
(I1
(I3
tp213
g17
I00
S'UUUUU\x05\xd7?\xab\xaa\xaa\xaa\xaa\x02\xe8?\xab\xaa\xaa\xaa\xaa\xca\xed?'
p214
tp215
bsg41
I3
sg42
g56
sg43
S'RN_3_cheese_right_c.png'
p216
sba(i__main__
Corridor
p217
(dp218
g6
g7
(g8
(I0
tp219
g10
tp220
Rp221
(I1
(I1
tp222
g17
I00
S'\x00\x00\x00\x00\x00X\xeb?'
p223
tp224
bsg22
g52
sg24
S'1_cheese'
p225
sg26
g54
sg28
I7168
sg29
S'RN_1_cheese_left.png'
p226
sg31
I768
sg32
I1024
sg33
g56
sg35
g7
(g8
(I0
tp227
g10
tp228
Rp229
(I1
(I1
tp230
g17
I00
S'\xab\xaa\xaa\xaa\xaa\xca\xed?'
p231
tp232
bsg41
I1
sg42
g56
sg43
S'RN_1_cheese_right.png'
p233
sba(i__main__
Corridor
p234
(dp235
g6
g7
(g8
(I0
tp236
g10
tp237
Rp238
(I1
(I1
tp239
g17
I00
S'UUUUU\xc5\xe0?'
p240
tp241
bsg22
g52
sg24
S'4-0-grid_high_contrast'
p242
sg26
S'KataEnd_HC.png'
p243
sg28
I10240
sg29
S'Grid4_0_HC_Left.png'
p244
sg31
I768
sg32
I1024
sg33
S'Kata_ceiling_HC.png'
p245
sg35
g7
(g8
(I0
tp246
g10
tp247
Rp248
(I1
(I1
tp249
g17
I00
S'8\x8e\xe38\x8e\xd3\xe3?'
p250
tp251
bsg41
I1
sg42
S'Kata_floor_HC.png'
p252
sg43
S'Grid4_0_HC_Right.png'
p253
sba(i__main__
Corridor
p254
(dp255
g6
g7
(g8
(I0
tp256
g10
tp257
Rp258
(I1
(I1
tp259
g17
I00
S'UUUUU\xc5\xe0?'
p260
tp261
bsg22
S'Left'
p262
sg24
S'3-1-grid_high_contrast'
p263
sg26
g243
sg28
I10240
sg29
S'Grid3_1_HC_Left.png'
p264
sg31
I768
sg32
I1024
sg33
g245
sg35
g7
(g8
(I0
tp265
g10
tp266
Rp267
(I1
(I1
tp268
g17
I00
S'8\x8e\xe38\x8e\xd3\xe3?'
p269
tp270
bsg41
I1
sg42
g252
sg43
S'Grid3_1_HC_Right.png'
p271
sba(i__main__
Corridor
p272
(dp273
g6
g7
(g8
(I0
tp274
g10
tp275
Rp276
(I1
(I1
tp277
g17
I00
S'r\x1c\xc7q\x1c\x97\xe9?'
p278
tp279
bsg22
g262
sg24
S'1-3-grid_high_contrast'
p280
sg26
g243
sg28
I10240
sg29
S'Grid1_3_HC_Left.png'
p281
sg31
I768
sg32
I1024
sg33
g245
sg35
g7
(g8
(I0
tp282
g10
tp283
Rp284
(I1
(I1
tp285
g17
I00
S'VUUUU\xa5\xec?'
p286
tp287
bsg41
I1
sg42
g252
sg43
S'Grid1_3_HC_Right.png'
p288
sba(i__main__
Corridor
p289
(dp290
g6
g7
(g8
(I0
tp291
g10
tp292
Rp293
(I1
(I1
tp294
g17
I00
S'r\x1c\xc7q\x1c\x97\xe9?'
p295
tp296
bsg22
g52
sg24
S'0-4-grid_high_contrast'
p297
sg26
g243
sg28
I10240
sg29
S'Grid0_4_HC_Left.png'
p298
sg31
I768
sg32
I1024
sg33
g245
sg35
g7
(g8
(I0
tp299
g10
tp300
Rp301
(I1
(I1
tp302
g17
I00
S'VUUUU\xa5\xec?'
p303
tp304
bsg41
I1
sg42
g252
sg43
S'Grid0_4_HC_Right.png'
p305
sba(i__main__
Corridor
p306
(dp307
g6
g7
(g8
(I0
tp308
g10
tp309
Rp310
(I1
(I1
tp311
g17
I00
S'UUUUU\xc5\xe0?'
p312
tp313
bsg22
g52
sg24
S'4-0-grid_mid_contrast'
p314
sg26
S'KataEnd_MC.png'
p315
sg28
I10240
sg29
S'Grid4_0_MC_Left.png'
p316
sg31
I768
sg32
I1024
sg33
S'Kata_ceiling_MC.png'
p317
sg35
g7
(g8
(I0
tp318
g10
tp319
Rp320
(I1
(I1
tp321
g17
I00
S'8\x8e\xe38\x8e\xd3\xe3?'
p322
tp323
bsg41
I1
sg42
S'Kata_floor_MC.png'
p324
sg43
S'Grid4_0_MC_Right.png'
p325
sba(i__main__
Corridor
p326
(dp327
g6
g7
(g8
(I0
tp328
g10
tp329
Rp330
(I1
(I1
tp331
g17
I00
S'UUUUU\xc5\xe0?'
p332
tp333
bsg22
g262
sg24
S'3-1-grid_mid_contrast'
p334
sg26
g315
sg28
I10240
sg29
S'Grid3_1_MC_Left.png'
p335
sg31
I768
sg32
I1024
sg33
g317
sg35
g7
(g8
(I0
tp336
g10
tp337
Rp338
(I1
(I1
tp339
g17
I00
S'8\x8e\xe38\x8e\xd3\xe3?'
p340
tp341
bsg41
I1
sg42
g324
sg43
S'Grid3_1_MC_Right.png'
p342
sba(i__main__
Corridor
p343
(dp344
g6
g7
(g8
(I0
tp345
g10
tp346
Rp347
(I1
(I1
tp348
g17
I00
S'r\x1c\xc7q\x1c\x97\xe9?'
p349
tp350
bsg22
g262
sg24
S'1-3-grid_mid_contrast'
p351
sg26
g315
sg28
I10240
sg29
S'Grid1_3_MC_Left.png'
p352
sg31
I768
sg32
I1024
sg33
g317
sg35
g7
(g8
(I0
tp353
g10
tp354
Rp355
(I1
(I1
tp356
g17
I00
S'VUUUU\xa5\xec?'
p357
tp358
bsg41
I1
sg42
g324
sg43
S'Grid1_3_MC_Right.png'
p359
sba(i__main__
Corridor
p360
(dp361
g6
g7
(g8
(I0
tp362
g10
tp363
Rp364
(I1
(I1
tp365
g17
I00
S'r\x1c\xc7q\x1c\x97\xe9?'
p366
tp367
bsg22
g52
sg24
S'0-4-grid_mid_contrast'
p368
sg26
g315
sg28
I10240
sg29
S'Grid0_4_MC_Left.png'
p369
sg31
I768
sg32
I1024
sg33
g317
sg35
g7
(g8
(I0
tp370
g10
tp371
Rp372
(I1
(I1
tp373
g17
I00
S'VUUUU\xa5\xec?'
p374
tp375
bsg41
I1
sg42
g324
sg43
S'Grid0_4_MC_Right.png'
p376
sba(i__main__
Corridor
p377
(dp378
g6
g7
(g8
(I0
tp379
g10
tp380
Rp381
(I1
(I1
tp382
g17
I00
S'UUUUU\xc5\xe0?'
p383
tp384
bsg22
g52
sg24
S'4-0-grid_low_contrast'
p385
sg26
S'KataEnd_LC.png'
p386
sg28
I10240
sg29
S'Grid4_0_LC_Left.png'
p387
sg31
I768
sg32
I1024
sg33
S'Kata_ceiling_LC.png'
p388
sg35
g7
(g8
(I0
tp389
g10
tp390
Rp391
(I1
(I1
tp392
g17
I00
S'8\x8e\xe38\x8e\xd3\xe3?'
p393
tp394
bsg41
I1
sg42
S'Kata_floor_LC.png'
p395
sg43
S'Grid4_0_LC_Right.png'
p396
sba(i__main__
Corridor
p397
(dp398
g6
g7
(g8
(I0
tp399
g10
tp400
Rp401
(I1
(I1
tp402
g17
I00
S'UUUUU\xc5\xe0?'
p403
tp404
bsg22
g262
sg24
S'3-1-grid_low_contrast'
p405
sg26
g386
sg28
I10240
sg29
S'Grid3_1_LC_Left.png'
p406
sg31
I768
sg32
I1024
sg33
g388
sg35
g7
(g8
(I0
tp407
g10
tp408
Rp409
(I1
(I1
tp410
g17
I00
S'8\x8e\xe38\x8e\xd3\xe3?'
p411
tp412
bsg41
I1
sg42
g395
sg43
S'Grid3_1_LC_Right.png'
p413
sba(i__main__
Corridor
p414
(dp415
g6
g7
(g8
(I0
tp416
g10
tp417
Rp418
(I1
(I1
tp419
g17
I00
S'\xc7q\x1c\xc7q\\\xe1?'
p420
tp421
bsg22
g262
sg24
S'2-2-grid_low_contrast'
p422
sg26
g386
sg28
I10240
sg29
S'Grid2_2_LC_Left.png'
p423
sg31
I768
sg32
I1024
sg33
g388
sg35
g7
(g8
(I0
tp424
g10
tp425
Rp426
(I1
(I1
tp427
g17
I00
S'\xaa\xaa\xaa\xaa\xaaj\xe4?'
p428
tp429
bsg41
I1
sg42
g395
sg43
S'Grid2_2_LC_Right.png'
p430
sba(i__main__
Corridor
p431
(dp432
g6
g7
(g8
(I0
tp433
g10
tp434
Rp435
(I1
(I1
tp436
g17
I00
S'UUUUU\xc5\xe0?'
p437
tp438
bsg22
g262
sg24
g405
sg26
g386
sg28
I10240
sg29
g406
sg31
I768
sg32
I1024
sg33
g388
sg35
g7
(g8
(I0
tp439
g10
tp440
Rp441
(I1
(I1
tp442
g17
I00
S'8\x8e\xe38\x8e\xd3\xe3?'
p443
tp444
bsg41
I1
sg42
g395
sg43
g413
sba(i__main__
Corridor
p445
(dp446
g6
g7
(g8
(I0
tp447
g10
tp448
Rp449
(I1
(I1
tp450
g17
I00
S'r\x1c\xc7q\x1c\x97\xe9?'
p451
tp452
bsg22
g52
sg24
S'0-4-grid_low_contrast'
p453
sg26
g386
sg28
I10240
sg29
S'Grid0_4_LC_Left.png'
p454
sg31
I768
sg32
I1024
sg33
g388
sg35
g7
(g8
(I0
tp455
g10
tp456
Rp457
(I1
(I1
tp458
g17
I00
S'VUUUU\xa5\xec?'
p459
tp460
bsg41
I1
sg42
g395
sg43
S'Grid0_4_LC_Right.png'
p461
sba(i__main__
Corridor
p462
(dp463
g6
g7
(g8
(I0
tp464
g10
tp465
Rp466
(I1
(I1
tp467
g17
I00
S'r\x1c\xc7q\x1c\x97\xe9?'
p468
tp469
bsg22
g262
sg24
S'polka_low_contrast'
p470
sg26
g386
sg28
I10240
sg29
S'polka_LC_Left.png'
p471
sg31
I768
sg32
I1024
sg33
g388
sg35
g7
(g8
(I0
tp472
g10
tp473
Rp474
(I1
(I1
tp475
g17
I00
S'VUUUU\xa5\xec?'
p476
tp477
bsg41
I1
sg42
g395
sg43
S'polka_LC_Right.png'
p478
sbasS'image_path'
p479
S'./'
p480
sg24
S'morphing'
p481
sS'num_VRs'
p482
I26
sb.