(iStages
StageCollection
p0
(dp1
S'stages'
p2
(lp3
(iStages
Stage
p4
(dp5
S'corridors'
p6
(lp7
I0
asS'N_corridors'
p8
I1
sS'name'
p9
S'pretrain'
p10
sS'next_stage'
p11
(lp12
I1
asS'level'
p13
S'lick&run'
p14
sS'random'
p15
S'pseudo'
p16
sS'rule'
p17
g10
sS'substages'
p18
(lp19
S'a'
p20
asS'condition'
p21
S'either'
p22
sS'stage'
p23
I0
sba(iStages
Stage
p24
(dp25
g6
(lp26
I1
aI2
aI3
aI4
aI5
aI6
aI7
aI8
aI9
aI10
aI11
asg8
I11
sg9
S'9 -> 1 lick zone'
p27
sg11
(lp28
I2
aI3
aI4
aI5
asg13
S'lick_zone'
p29
sg15
g16
sg17
S'Pavlovian'
p30
sg18
(lp31
I0
aI1
aI1
aI1
aI2
aI2
aI2
aI3
aI3
aI3
aI4
asg21
g22
sg23
I1
sba(iStages
Stage
p32
(dp33
g6
(lp34
I12
aI13
aI14
aI15
asg8
I4
sg9
S'extreme'
p35
sg11
(lp36
I3
asg13
S'contrast'
p37
sg15
(lp38
I6
aI0
aI0
aI6
asg17
S'correct'
p39
sg18
(lp40
g20
ag20
ag20
ag20
asg21
g39
sg23
I2
sba(iStages
Stage
p41
(dp42
g6
(lp43
I16
aI17
aI18
aI19
asg8
I4
sg9
S'mid-contrast'
p44
sg11
(lp45
I4
asg13
g37
sg15
(lp46
I6
aI1
aI1
aI6
asg17
F0.9
sg18
(lp47
g20
ag20
ag20
ag20
asg21
g39
sg23
I3
sba(iStages
Stage
p48
(dp49
g6
(lp50
I20
aI21
aI23
aI24
asg8
I4
sg9
S'low-contrast'
p51
sg11
(lp52
I5
asg13
g37
sg15
(lp53
I6
aI1
aI1
aI6
asg17
F0.9
sg18
(lp54
g20
ag20
ag20
ag20
asg21
g39
sg23
I4
sba(iStages
Stage
p55
(dp56
g6
(lp57
I20
aI22
aI24
asg8
I3
sg9
S'morph'
p58
sg11
(lp59
I6
asg13
g58
sg15
(lp60
I6
aI2
aI6
asg17
F0.9
sg18
(lp61
g20
ag20
ag20
asg21
g39
sg23
I5
sba(iStages
Stage
p62
(dp63
g6
(lp64
I20
aI21
aI22
aI23
aI24
asg8
I5
sg9
S'psychometric'
p65
sg11
(lp66
I7
asg13
g58
sg15
(lp67
I6
aI1
aI1
aI1
aI6
asg17
F0.9
sg18
(lp68
g20
ag20
ag20
ag20
ag20
asg21
g39
sg23
I6
sba(iStages
Stage
p69
(dp70
g6
(lp71
I20
aI25
aI24
asg8
I3
sg9
S'new_corridor'
p72
sg11
(lp73
I5
asg13
g58
sg15
(lp74
I6
aI2
aI6
asg17
F0.9
sg18
(lp75
g20
ag20
ag20
asg21
g39
sg23
I7
sbasS'num_stages'
p76
I8
sS'image_path'
p77
S'.'
p78
sg9
S'morphing'
p79
sb.