(i__main__
StageCollection
p0
(dp1
S'stages'
p2
(lp3
(i__main__
Stage
p4
(dp5
S'corridors'
p6
(lp7
I0
asS'N_corridors'
p8
I1
sS'name'
p9
S'pretrain'
p10
sS'next_stage'
p11
(lp12
I1
asS'level'
p13
g10
sS'random'
p14
S'pseudo'
p15
sS'rule'
p16
S'lick&run'
p17
sS'substages'
p18
(lp19
S'a'
p20
asS'condition'
p21
S'either'
p22
sS'stage'
p23
I0
sba(i__main__
Stage
p24
(dp25
g6
(lp26
I1
aI2
asg8
I2
sg9
S'all_reward'
p27
sg11
(lp28
I2
asg13
S'diff_1'
p29
sg14
g15
sg16
S'Pavlovian'
p30
sg18
(lp31
g20
ag20
asg21
g22
sg23
I1
sba(i__main__
Stage
p32
(dp33
g6
(lp34
I3
aI4
aI5
aI6
aI7
asg8
I5
sg9
S'1_zone'
p35
sg11
(lp36
I2
asg13
S'diff_2'
p37
sg14
g15
sg16
g30
sg18
(lp38
I0
aI0
aI1
aI1
aI1
asg21
S'both'
p39
sg23
I2
sbasS'num_stages'
p40
I3
sS'image_path'
p41
S'./'
p42
sg9
S'NearFar'
p43
sb.