(i__main__
Corridor_list
p0
(dp1
S'corridors'
p2
(lp3
(i__main__
Corridor
p4
(dp5
S'reward_zone_starts'
p6
cnumpy.core.multiarray
_reconstruct
p7
(cnumpy
ndarray
p8
(I0
tp9
S'b'
p10
tp11
Rp12
(I1
(I0
tp13
cnumpy
dtype
p14
(S'f8'
p15
I0
I1
tp16
Rp17
(I3
S'<'
p18
NNNI-1
I-1
I0
tp19
bI00
S''
p20
tp21
bsS'reward'
p22
S'None'
p23
sS'name'
p24
S'grey'
p25
sS'end_image'
p26
S'grey_end_wall.png'
p27
sS'length'
p28
I7168
sS'left_image'
p29
S'grey_wall.png'
p30
sS'height'
p31
I768
sS'width'
p32
I1024
sS'ceiling_image'
p33
S'grey_floor_ceiling.png'
p34
sS'reward_zone_ends'
p35
g7
(g8
(I0
tp36
g10
tp37
Rp38
(I1
(I0
tp39
g17
I00
g20
tp40
bsS'N_zones'
p41
I0
sS'floor_image'
p42
g34
sS'right_image'
p43
g30
sba(i__main__
Corridor
p44
(dp45
g6
g7
(g8
(I0
tp46
g10
tp47
Rp48
(I1
(I12
tp49
g17
I00
S'\x00\x00\x00\x00\x00\x00\x00\x00UUUUU\xd5\xb4?UUUUU\xd5\xc4?\x00\x00\x00\x00\x00@\xcf?UUUUU\xd5\xd4?\xab\xaa\xaa\xaa\xaa\n\xda?\x00\x00\x00\x00\x00@\xdf?\xab\xaa\xaa\xaa\xaa:\xe2?UUUUU\xd5\xe4?\x00\x00\x00\x00\x00p\xe7?\xab\xaa\xaa\xaa\xaa\n\xea?UUUUU\xa5\xec?'
p50
tp51
bsg22
S'Right'
p52
sg24
S'all_sine'
p53
sg26
S'mAEnd.png'
p54
sg28
I7168
sg29
S'mABd0LeftRightcorridor.png'
p55
sg31
I768
sg32
I1024
sg33
S'floor_ceiling.png'
p56
sg35
g7
(g8
(I0
tp57
g10
tp58
Rp59
(I1
(I12
tp60
g17
I00
S'\x00\x00\x00\x00\x00\x00\xb4?\xaa\xaa\xaa\xaa\xaaj\xc4?UUUUU\xd5\xce?\x00\x00\x00\x00\x00\xa0\xd4?UUUUU\xd5\xd9?\xab\xaa\xaa\xaa\xaa\n\xdf?\x00\x00\x00\x00\x00 \xe2?\xab\xaa\xaa\xaa\xaa\xba\xe4?UUUUUU\xe7?\x00\x00\x00\x00\x00\xf0\xe9?\xab\xaa\xaa\xaa\xaa\x8a\xec?UUUUU%\xef?'
p61
tp62
bsg41
I12
sg42
S'mAFloor.png'
p63
sg43
g55
sba(i__main__
Corridor
p64
(dp65
g6
g7
(g8
(I0
tp66
g10
tp67
Rp68
(I1
(I12
tp69
g17
I00
S'\x00\x00\x00\x00\x00\x00\x00\x00UUUUU\xd5\xb4?UUUUU\xd5\xc4?\x00\x00\x00\x00\x00@\xcf?UUUUU\xd5\xd4?\xab\xaa\xaa\xaa\xaa\n\xda?\x00\x00\x00\x00\x00@\xdf?\xab\xaa\xaa\xaa\xaa:\xe2?UUUUU\xd5\xe4?\x00\x00\x00\x00\x00p\xe7?\xab\xaa\xaa\xaa\xaa\n\xea?UUUUU\xa5\xec?'
p70
tp71
bsg22
g52
sg24
S'all_square'
p72
sg26
S'mBEnd.png'
p73
sg28
I7168
sg29
S'mABd0LeftRightcorridor.png'
p74
sg31
I768
sg32
I1024
sg33
S'floor_ceiling.png'
p75
sg35
g7
(g8
(I0
tp76
g10
tp77
Rp78
(I1
(I12
tp79
g17
I00
S'\x00\x00\x00\x00\x00\x00\xb4?\xaa\xaa\xaa\xaa\xaaj\xc4?UUUUU\xd5\xce?\x00\x00\x00\x00\x00\xa0\xd4?UUUUU\xd5\xd9?\xab\xaa\xaa\xaa\xaa\n\xdf?\x00\x00\x00\x00\x00 \xe2?\xab\xaa\xaa\xaa\xaa\xba\xe4?UUUUUU\xe7?\x00\x00\x00\x00\x00\xf0\xe9?\xab\xaa\xaa\xaa\xaa\x8a\xec?UUUUU%\xef?'
p80
tp81
bsg41
I12
sg42
S'mBFloor.png'
p82
sg43
g74
sba(i__main__
Corridor
p83
(dp84
g6
g7
(g8
(I0
tp85
g10
tp86
Rp87
(I1
(I1
tp88
g17
I00
S'\x00\x00\x00\x00\x00\xd0\xd8?'
p89
tp90
bsg22
g52
sg24
S'sine'
p91
sg26
S'mAEnd.png'
p92
sg28
I7168
sg29
S'mAd1Leftcorridor.png'
p93
sg31
I768
sg32
I1024
sg33
S'floor_ceiling.png'
p94
sg35
g7
(g8
(I0
tp95
g10
tp96
Rp97
(I1
(I1
tp98
g17
I00
S'\x00\x00\x00\x00\x00\x8c\xe2?'
p99
tp100
bsg41
I1
sg42
S'mAFloor.png'
p101
sg43
S'mAd1Rightcorridor.png'
p102
sba(i__main__
Corridor
p103
(dp104
g6
g7
(g8
(I0
tp105
g10
tp106
Rp107
(I1
(I1
tp108
g17
I00
S'\xab\xaa\xaa\xaa\xaa\xd6\xe8?'
p109
tp110
bsg22
g52
sg24
S'square'
p111
sg26
S'mBEnd.png'
p112
sg28
I7168
sg29
S'mBd1Leftcorridor.png'
p113
sg31
I768
sg32
I1024
sg33
S'floor_ceiling.png'
p114
sg35
g7
(g8
(I0
tp115
g10
tp116
Rp117
(I1
(I1
tp118
g17
I00
S'\xab\xaa\xaa\xaa\xaa\xfa\xee?'
p119
tp120
bsg41
I1
sg42
S'mBFloor.png'
p121
sg43
S'mBd1Rightcorridor.png'
p122
sba(i__main__
Corridor
p123
(dp124
g6
g7
(g8
(I0
tp125
g10
tp126
Rp127
(I1
(I1
tp128
g17
I00
S'\x00\x00\x00\x00\x00\xd0\xd8?'
p129
tp130
bsg22
g52
sg24
S'sine2'
p131
sg26
S'mAEnd.png'
p132
sg28
I7168
sg29
S'mAd1Leftcorridor.png'
p133
sg31
I768
sg32
I1024
sg33
S'floor_ceiling.png'
p134
sg35
g7
(g8
(I0
tp135
g10
tp136
Rp137
(I1
(I1
tp138
g17
I00
S'\x00\x00\x00\x00\x00\x8c\xe2?'
p139
tp140
bsg41
I1
sg42
S'mAFloor.png'
p141
sg43
S'mAd1Rightcorridor.png'
p142
sba(i__main__
Corridor
p143
(dp144
g6
g7
(g8
(I0
tp145
g10
tp146
Rp147
(I1
(I1
tp148
g17
I00
S'\xab\xaa\xaa\xaa\xaa\xd6\xe8?'
p149
tp150
bsg22
g52
sg24
S'square2'
p151
sg26
S'mBEnd.png'
p152
sg28
I7168
sg29
S'mBd1Leftcorridor.png'
p153
sg31
I768
sg32
I1024
sg33
S'floor_ceiling.png'
p154
sg35
g7
(g8
(I0
tp155
g10
tp156
Rp157
(I1
(I1
tp158
g17
I00
S'\xab\xaa\xaa\xaa\xaa\xfa\xee?'
p159
tp160
bsg41
I1
sg42
S'mBFloor.png'
p161
sg43
S'mBd1Rightcorridor.png'
p162
sba(i__main__
Corridor
p163
(dp164
g6
g7
(g8
(I0
tp165
g10
tp166
Rp167
(I1
(I1
tp168
g17
I00
S'\xab\xaa\xaa\xaa\xaa\x8a\xe2?'
p169
tp170
bsg22
g52
sg24
S'star'
p171
sg26
S'mCEnd.png'
p172
sg28
I7168
sg29
S'mCd1Leftcorridor.png'
p173
sg31
I768
sg32
I1024
sg33
S'floor_ceiling.png'
p174
sg35
g7
(g8
(I0
tp175
g10
tp176
Rp177
(I1
(I1
tp178
g17
I00
S'\xab\xaa\xaa\xaa\xaa\xae\xe8?'
p179
tp180
bsg41
I1
sg42
S'mCFloor.png'
p181
sg43
S'mCd1Rightcorridor.png'
p182
sbasS'image_path'
p183
S'./'
p184
sg24
S'NearFar'
p185
sS'num_VRs'
p186
I8
sb.