(i__main__
Corridor_list
p0
(dp1
S'corridors'
p2
(lp3
(i__main__
Corridor
p4
(dp5
S'reward_zone_starts'
p6
cnumpy.core.multiarray
_reconstruct
p7
(cnumpy
ndarray
p8
(I0
tp9
S'b'
p10
tp11
Rp12
(I1
(I0
tp13
cnumpy
dtype
p14
(S'f8'
p15
I0
I1
tp16
Rp17
(I3
S'<'
p18
NNNI-1
I-1
I0
tp19
bI00
S''
p20
tp21
bsS'reward'
p22
S'None'
p23
sS'name'
p24
S'grey'
p25
sS'end_image'
p26
S'grey_end_wall.png'
p27
sS'length'
p28
I7168
sS'left_image'
p29
S'grey_wall.png'
p30
sS'height'
p31
I768
sS'width'
p32
I1024
sS'ceiling_image'
p33
S'grey_floor_ceiling.png'
p34
sS'reward_zone_ends'
p35
g7
(g8
(I0
tp36
g10
tp37
Rp38
(I1
(I0
tp39
g17
I00
g20
tp40
bsS'N_zones'
p41
I0
sS'floor_image'
p42
g34
sS'right_image'
p43
g30
sba(i__main__
Corridor
p44
(dp45
g6
g7
(g8
(I0
tp46
g10
tp47
Rp48
(I1
(I9
tp49
g17
I00
S'\x00\x00\x00\x00\x00\x00\x00\x00UUUUUU\xbc?UUUUUU\xcc?\x00\x00\x00\x00\x00@\xd5?UUUUUU\xdc?UUUUU\xb5\xe1?\x00\x00\x00\x00\x00@\xe5?\xab\xaa\xaa\xaa\xaa\xca\xe8?UUUUUU\xec?'
p50
tp51
bsg22
S'Right'
p52
sg24
S'9_cheese'
p53
sg26
S'black_end_wall.png'
p54
sg28
I7168
sg29
S'RN_9_cheese_left.png'
p55
sg31
I768
sg32
I1024
sg33
S'floor_ceiling.png'
p56
sg35
g7
(g8
(I0
tp57
g10
tp58
Rp59
(I1
(I9
tp60
g17
I00
S'UUUUU\x95\xb3?UUUUU\xf5\xc7?\x00\x00\x00\x00\x00\x10\xd3?UUUUU%\xda?UUUUU\x9d\xe0?\x00\x00\x00\x00\x00(\xe4?\xab\xaa\xaa\xaa\xaa\xb2\xe7?VUUUU=\xeb?\x00\x00\x00\x00\x00\xc8\xee?'
p61
tp62
bsg41
I9
sg42
g56
sg43
S'RN_9_cheese_right.png'
p63
sba(i__main__
Corridor
p64
(dp65
g6
g7
(g8
(I0
tp66
g10
tp67
Rp68
(I1
(I7
tp69
g17
I00
S'\x00\x00\x00\x00\x00\x00\x00\x00UUUUU\xd5\xc4?UUUUU5\xd4?\xab\xaa\xaa\xaa\xaa\x8a\xdc?UUUUU\x85\xe4?\x00\x00\x00\x00\x00\xb0\xe8?UUUUU\xa5\xec?'
p70
tp71
bsg22
g52
sg24
S'7_cheese_a'
p72
sg26
S'black_end_wall.png'
p73
sg28
I7168
sg29
S'RN_7_cheese_left_a.png'
p74
sg31
I768
sg32
I1024
sg33
S'floor_ceiling.png'
p75
sg35
g7
(g8
(I0
tp76
g10
tp77
Rp78
(I1
(I7
tp79
g17
I00
S'UUUUU\x95\xb3?\x00\x00\x00\x00\x00\xa0\xce?\xaa\xaa\xaa\xaa\xaa\x1a\xd9?\x00\x00\x00\x00\x00\xb8\xe0?\x00\x00\x00\x00\x00\xf8\xe6?\xab\xaa\xaa\xaa\xaa"\xeb?\x00\x00\x00\x00\x00\x18\xef?'
p80
tp81
bsg41
I7
sg42
g75
sg43
S'RN_7_cheese_right_a.png'
p82
sba(i__main__
Corridor
p83
(dp84
g6
g7
(g8
(I0
tp85
g10
tp86
Rp87
(I1
(I7
tp88
g17
I00
S'\x00\x00\x00\x00\x00\x00\x00\x00UUUUU\x95\xc3?\x00\x00\x00\x00\x00 \xd2?UUUUUu\xda?UUUUUe\xe1?\x00\x00\x00\x00\x00\x90\xe5?UUUUU\xa5\xec?'
p89
tp90
bsg22
g52
sg24
S'7_cheese_b'
p91
sg26
S'black_end_wall.png'
p92
sg28
I7168
sg29
S'RN_7_cheese_left_b.png'
p93
sg31
I768
sg32
I1024
sg33
S'floor_ceiling.png'
p94
sg35
g7
(g8
(I0
tp95
g10
tp96
Rp97
(I1
(I7
tp98
g17
I00
S'UUUUU\x95\xb3?\x00\x00\x00\x00\x00`\xcd?UUUUU\x05\xd7?\xaa\xaa\xaa\xaa\xaaZ\xdf?\x00\x00\x00\x00\x00\xd8\xe3?\xab\xaa\xaa\xaa\xaa\x02\xe8?\x00\x00\x00\x00\x00\x18\xef?'
p99
tp100
bsg41
I7
sg42
g94
sg43
S'RN_7_cheese_right_b.png'
p101
sba(i__main__
Corridor
p102
(dp103
g6
g7
(g8
(I0
tp104
g10
tp105
Rp106
(I1
(I7
tp107
g17
I00
S'UUUUUU\xac?\xab\xaa\xaa\xaa\xaa\n\xd0?\x00\x00\x00\x00\x00`\xd8?\x00\x00\x00\x00\x00\xa8\xe1?UUUUUM\xe5?\xab\xaa\xaa\xaa\xaa\xf2\xe8?UUUUU\xa5\xec?'
p108
tp109
bsg22
g52
sg24
S'7_cheese_c'
p110
sg26
S'black_end_wall.png'
p111
sg28
I7168
sg29
S'RN_7_cheese_left_c.png'
p112
sg31
I768
sg32
I1024
sg33
S'floor_ceiling.png'
p113
sg35
g7
(g8
(I0
tp114
g10
tp115
Rp116
(I1
(I7
tp117
g17
I00
S'\x00\x00\x00\x00\x00\xe0\xc0?\x00\x00\x00\x00\x00\xf0\xd4?UUUUUE\xdd?\xab\xaa\xaa\xaa\xaa\x1a\xe4?\x00\x00\x00\x00\x00\xc0\xe7?VUUUUe\xeb?\x00\x00\x00\x00\x00\x18\xef?'
p118
tp119
bsg41
I7
sg42
g113
sg43
S'RN_7_cheese_right_c.png'
p120
sba(i__main__
Corridor
p121
(dp122
g6
g7
(g8
(I0
tp123
g10
tp124
Rp125
(I1
(I5
tp126
g17
I00
S'UUUUU\x95\xc3?\x00\x00\x00\x00\x00 \xd2?UUUUUu\xda?\x00\x00\x00\x00\x00\x90\xe5?UUUUU\xa5\xec?'
p127
tp128
bsg22
g52
sg24
S'5_cheese_a'
p129
sg26
S'black_end_wall.png'
p130
sg28
I7168
sg29
S'RN_5_cheese_left_a.png'
p131
sg31
I768
sg32
I1024
sg33
S'floor_ceiling.png'
p132
sg35
g7
(g8
(I0
tp133
g10
tp134
Rp135
(I1
(I5
tp136
g17
I00
S'\x00\x00\x00\x00\x00`\xcd?UUUUU\x05\xd7?\xaa\xaa\xaa\xaa\xaaZ\xdf?\xab\xaa\xaa\xaa\xaa\x02\xe8?\x00\x00\x00\x00\x00\x18\xef?'
p137
tp138
bsg41
I5
sg42
g132
sg43
S'RN_5_cheese_right_a.png'
p139
sba(i__main__
Corridor
p140
(dp141
g6
g7
(g8
(I0
tp142
g10
tp143
Rp144
(I1
(I5
tp145
g17
I00
S'\x00\x00\x00\x00\x00\x00\x00\x00\xab\xaa\xaa\xaa\xaa\xea\xcb?\xab\xaa\xaa\xaa\xaaZ\xe0?\xab\xaa\xaa\xaa\xaa*\xe8?UUUUU\xa5\xec?'
p146
tp147
bsg22
g52
sg24
S'5_cheese_b'
p148
sg26
S'black_end_wall.png'
p149
sg28
I7168
sg29
S'RN_5_cheese_left_b.png'
p150
sg31
I768
sg32
I1024
sg33
S'floor_ceiling.png'
p151
sg35
g7
(g8
(I0
tp152
g10
tp153
Rp154
(I1
(I5
tp155
g17
I00
S'UUUUU\x95\xb3?\xab\xaa\xaa\xaa\xaa\xda\xd2?VUUUU\xcd\xe2?VUUUU\x9d\xea?\x00\x00\x00\x00\x00\x18\xef?'
p156
tp157
bsg41
I5
sg42
g151
sg43
S'RN_5_cheese_right_b.png'
p158
sba(i__main__
Corridor
p159
(dp160
g6
g7
(g8
(I0
tp161
g10
tp162
Rp163
(I1
(I5
tp164
g17
I00
S'UUUUU\xd5\xc4?\xab\xaa\xaa\xaa\xaa\x8a\xdc?UUUUU\x85\xe4?\x00\x00\x00\x00\x00\xb0\xe8?UUUUU\xa5\xec?'
p165
tp166
bsg22
g52
sg24
S'5_cheese_c'
p167
sg26
S'black_end_wall.png'
p168
sg28
I7168
sg29
S'RN_5_cheese_left_c.png'
p169
sg31
I768
sg32
I1024
sg33
S'floor_ceiling.png'
p170
sg35
g7
(g8
(I0
tp171
g10
tp172
Rp173
(I1
(I5
tp174
g17
I00
S'\x00\x00\x00\x00\x00\xa0\xce?\x00\x00\x00\x00\x00\xb8\xe0?\x00\x00\x00\x00\x00\xf8\xe6?\xab\xaa\xaa\xaa\xaa"\xeb?\x00\x00\x00\x00\x00\x18\xef?'
p175
tp176
bsg41
I5
sg42
g170
sg43
S'RN_5_cheese_right_c.png'
p177
sba(i__main__
Corridor
p178
(dp179
g6
g7
(g8
(I0
tp180
g10
tp181
Rp182
(I1
(I3
tp183
g17
I00
S'UUUUU\xd5\xc4?\xab\xaa\xaa\xaa\xaaJ\xd6?UUUUU\xa5\xec?'
p184
tp185
bsg22
g52
sg24
S'3_cheese_a'
p186
sg26
S'black_end_wall.png'
p187
sg28
I7168
sg29
S'RN_3_cheese_left_a.png'
p188
sg31
I768
sg32
I1024
sg33
S'floor_ceiling.png'
p189
sg35
g7
(g8
(I0
tp190
g10
tp191
Rp192
(I1
(I3
tp193
g17
I00
S'\x00\x00\x00\x00\x00\xa0\xce?\x00\x00\x00\x00\x000\xdb?\x00\x00\x00\x00\x00\x18\xef?'
p194
tp195
bsg41
I3
sg42
g189
sg43
S'RN_3_cheese_right_a.png'
p196
sba(i__main__
Corridor
p197
(dp198
g6
g7
(g8
(I0
tp199
g10
tp200
Rp201
(I1
(I3
tp202
g17
I00
S'UUUUU\x95\xc3?UUUUU\xf5\xe2?UUUUU\xa5\xec?'
p203
tp204
bsg22
g52
sg24
S'3_cheese_b'
p205
sg26
S'black_end_wall.png'
p206
sg28
I7168
sg29
S'RN_3_cheese_left_b.png'
p207
sg31
I768
sg32
I1024
sg33
S'floor_ceiling.png'
p208
sg35
g7
(g8
(I0
tp209
g10
tp210
Rp211
(I1
(I3
tp212
g17
I00
S'\x00\x00\x00\x00\x00`\xcd?\x00\x00\x00\x00\x00h\xe5?\x00\x00\x00\x00\x00\x18\xef?'
p213
tp214
bsg41
I3
sg42
g208
sg43
S'RN_3_cheese_right_b.png'
p215
sba(i__main__
Corridor
p216
(dp217
g6
g7
(g8
(I0
tp218
g10
tp219
Rp220
(I1
(I3
tp221
g17
I00
S'\x00\x00\x00\x00\x00 \xd2?\x00\x00\x00\x00\x00\x90\xe5?UUUUU\xa5\xec?'
p222
tp223
bsg22
g52
sg24
S'3_cheese_c'
p224
sg26
S'black_end_wall.png'
p225
sg28
I7168
sg29
S'RN_3_cheese_left_c.png'
p226
sg31
I768
sg32
I1024
sg33
S'floor_ceiling.png'
p227
sg35
g7
(g8
(I0
tp228
g10
tp229
Rp230
(I1
(I3
tp231
g17
I00
S'UUUUU\x05\xd7?\xab\xaa\xaa\xaa\xaa\x02\xe8?\x00\x00\x00\x00\x00\x18\xef?'
p232
tp233
bsg41
I3
sg42
g227
sg43
S'RN_3_cheese_right_c.png'
p234
sba(i__main__
Corridor
p235
(dp236
g6
g7
(g8
(I0
tp237
g10
tp238
Rp239
(I1
(I1
tp240
g17
I00
S'UUUUU\xa5\xec?'
p241
tp242
bsg22
g52
sg24
S'1_cheese'
p243
sg26
S'black_end_wall.png'
p244
sg28
I7168
sg29
S'RN_1_cheese_left.png'
p245
sg31
I768
sg32
I1024
sg33
S'floor_ceiling.png'
p246
sg35
g7
(g8
(I0
tp247
g10
tp248
Rp249
(I1
(I1
tp250
g17
I00
S'\x00\x00\x00\x00\x00\x18\xef?'
p251
tp252
bsg41
I1
sg42
g246
sg43
S'RN_1_cheese_right.png'
p253
sba(i__main__
Corridor
p254
(dp255
g6
g7
(g8
(I0
tp256
g10
tp257
Rp258
(I1
(I1
tp259
g17
I00
S'UUUUUy\xeb?'
p260
tp261
bsg22
g52
sg24
S'green_squared_right'
p262
sg26
S'black_end_wall.png'
p263
sg28
I7168
sg29
S'RN_wall_squared_green_left_002.png'
p264
sg31
I768
sg32
I1024
sg33
S'floor_ceiling.png'
p265
sg35
g7
(g8
(I0
tp266
g10
tp267
Rp268
(I1
(I1
tp269
g17
I00
S'\x00\x00\x00\x00\x00\xec\xed?'
p270
tp271
bsg41
I1
sg42
g265
sg43
S'RN_wall_squared_green_right_002.png'
p272
sba(i__main__
Corridor
p273
(dp274
g6
g7
(g8
(I0
tp275
g10
tp276
Rp277
(I1
(I1
tp278
g17
I00
S'\xab\xaa\xaa\xaa\xaaB\xe4?'
p279
tp280
bsg22
g52
sg24
g262
sg26
S'black_end_wall.png'
p281
sg28
I7168
sg29
S'SR_wall_squared_green_left_001.png'
p282
sg31
I768
sg32
I1024
sg33
S'floor_ceiling.png'
p283
sg35
g7
(g8
(I0
tp284
g10
tp285
Rp286
(I1
(I1
tp287
g17
I00
S'VUUUU\xb5\xe6?'
p288
tp289
bsg41
I1
sg42
g283
sg43
S'SR_wall_squared_green_right_001.png'
p290
sba(i__main__
Corridor
p291
(dp292
g6
g7
(g8
(I0
tp293
g10
tp294
Rp295
(I1
(I1
tp296
g17
I00
S'UUUUUy\xeb?'
p297
tp298
bsg22
g52
sg24
S'purple_striped_right'
p299
sg26
S'black_end_wall.png'
p300
sg28
I7168
sg29
S'RN_wall_striped_purple_left_002.png'
p301
sg31
I768
sg32
I1024
sg33
S'floor_ceiling.png'
p302
sg35
g7
(g8
(I0
tp303
g10
tp304
Rp305
(I1
(I1
tp306
g17
I00
S'\x00\x00\x00\x00\x00\xec\xed?'
p307
tp308
bsg41
I1
sg42
g302
sg43
S'RN_wall_striped_purple_right_002.png'
p309
sba(i__main__
Corridor
p310
(dp311
g6
g7
(g8
(I0
tp312
g10
tp313
Rp314
(I1
(I1
tp315
g17
I00
S'\x00\x00\x00\x00\x00\xf0\xdb?'
p316
tp317
bsg22
g52
sg24
g299
sg26
S'black_end_wall.png'
p318
sg28
I7168
sg29
S'SR_wall_striped_purple_left_001.png'
p319
sg31
I768
sg32
I1024
sg33
S'floor_ceiling.png'
p320
sg35
g7
(g8
(I0
tp321
g10
tp322
Rp323
(I1
(I1
tp324
g17
I00
S'\xab\xaa\xaa\xaa\xaaj\xe0?'
p325
tp326
bsg41
I1
sg42
g320
sg43
S'SR_wall_striped_purple_right_001.png'
p327
sba(i__main__
Corridor
p328
(dp329
g6
g7
(g8
(I0
tp330
g10
tp331
Rp332
(I1
(I1
tp333
g17
I00
S'UUUUUy\xeb?'
p334
tp335
bsg22
g52
sg24
S'purple_squared_right'
p336
sg26
S'black_end_wall.png'
p337
sg28
I7168
sg29
S'RN_wall_squared_purple_left_002.png'
p338
sg31
I768
sg32
I1024
sg33
S'floor_ceiling.png'
p339
sg35
g7
(g8
(I0
tp340
g10
tp341
Rp342
(I1
(I1
tp343
g17
I00
S'\x00\x00\x00\x00\x00\xec\xed?'
p344
tp345
bsg41
I1
sg42
g339
sg43
S'RN_wall_squared_purple_right_002.png'
p346
sbasS'image_path'
p347
S'./'
p348
sg24
S'TwoMazes'
p349
sS'num_VRs'
p350
I17
sb.