(i__main__
StageCollection
p0
(dp1
S'stages'
p2
(lp3
(i__main__
Stage
p4
(dp5
S'corridors'
p6
(lp7
I0
asS'N_corridors'
p8
I1
sS'name'
p9
S'pretrain'
p10
sS'next_stage'
p11
(lp12
I1
asS'level'
p13
g10
sS'random'
p14
S'pseudo'
p15
sS'rule'
p16
S'lick&run'
p17
sS'substages'
p18
(lp19
I0
asS'condition'
p20
S'either'
p21
sS'stage'
p22
I0
sba(i__main__
Stage
p23
(dp24
g6
(lp25
I1
aI2
aI3
aI4
aI5
aI6
aI7
aI8
aI9
aI10
aI11
asg8
I11
sg9
S'9 -> 1 lick zone'
p26
sg11
(lp27
I2
aI3
aI4
aI5
asg13
S'lick_zone'
p28
sg14
g15
sg16
S'Pavlovian'
p29
sg18
(lp30
I0
aI1
aI1
aI1
aI2
aI2
aI2
aI3
aI3
aI3
aI4
asg20
g21
sg22
I1
sba(i__main__
Stage
p31
(dp32
g6
(lp33
I12
asg8
I1
sg9
S'green square'
p34
sg11
(lp35
I7
asg13
S'1 maze'
p36
sg14
g15
sg16
S'correct'
p37
sg18
(lp38
I0
asg20
g37
sg22
I6
sba(i__main__
Stage
p39
(dp40
g6
(lp41
I13
asg8
I1
sg9
S'green square NEAR'
p42
sg11
(lp43
I11
asg13
S'1 maze'
p44
sg14
g15
sg16
g37
sg18
(lp45
I0
asg20
g37
sg22
I7
sba(i__main__
Stage
p46
(dp47
g6
(lp48
I14
asg8
I1
sg9
S'purple striped'
p49
sg11
(lp50
I9
asg13
S'1 maze'
p51
sg14
g15
sg16
g37
sg18
(lp52
I0
asg20
g37
sg22
I8
sba(i__main__
Stage
p53
(dp54
g6
(lp55
I15
asg8
I1
sg9
S'purple striped NEAR'
p56
sg11
(lp57
I12
asg13
S'1 maze'
p58
sg14
g15
sg16
g37
sg18
(lp59
I0
asg20
g37
sg22
I9
sba(i__main__
Stage
p60
(dp61
g6
(lp62
I16
asg8
I1
sg9
S'purple square'
p63
sg11
(lp64
I13
asg13
S'1 maze'
p65
sg14
g15
sg16
g37
sg18
(lp66
I0
asg20
g37
sg22
I10
sba(i__main__
Stage
p67
(dp68
g6
(lp69
I12
aI13
asg8
I2
sg9
S'green_Q'
p70
sg11
(lp71
I8
asg13
S'2 maze'
p72
sg14
g15
sg16
g37
sg18
(lp73
I0
aI0
asg20
g37
sg22
I11
sba(i__main__
Stage
p74
(dp75
g6
(lp76
I14
aI15
asg8
I2
sg9
S'purple_S'
p77
sg11
(lp78
I10
asg13
S'2 maze'
p79
sg14
g15
sg16
g37
sg18
(lp80
I0
aI0
asg20
g37
sg22
I12
sba(i__main__
Stage
p81
(dp82
g6
(lp83
I12
aI16
asg8
I2
sg9
S'square'
p84
sg11
(lp85
I11
asg13
S'2 maze'
p86
sg14
g15
sg16
g37
sg18
(lp87
I0
aI0
asg20
g37
sg22
I13
sbasS'num_stages'
p88
I10
sS'image_path'
p89
S'./'
p90
sg9
S'TwoMazes'
p91
sb.